target datalayout = "e-m:e-p270:32:32-p271:32:32-p272:64:64-i64:64-i128:128-f80:128-n8:16:32:64-S128"
target triple = "x86_64-pc-linux-gnu"

%struct.cli_asn1 = type { i8, i32, ptr, ptr }
%struct.cl_fmap = type { ptr, ptr, ptr, i64, i64, i64, i64, i8, i8, i8, i64, i64, i64, i64, ptr, ptr, ptr, ptr, ptr, ptr, ptr, i8, [16 x i8], i8, [20 x i8], i8, [32 x i8], ptr, ptr }
%struct.cli_crt_t = type { ptr, [64 x i8], [64 x i8], [64 x i8], [20 x i8], [20 x i8], [20 x i8], i32, [64 x i8], ptr, ptr, ptr, i64, i64, i32, i32, i32, i32, i32, ptr, ptr }

@.str.111 = private unnamed_addr constant [10 x i8] c"*\86H\86\F7\0D\01\01\01\00", align 1
@.str.209 = private unnamed_addr constant [75 x i8] c"asn1_get_rsa_pubkey: AlgorithmIdentifier other than RSA not yet supported\0A\00", align 1
@.str.210 = private unnamed_addr constant [74 x i8] c"asn1_get_rsa_pubkey: found unexpected extra data in subjectPublicKeyInfo\0A\00", align 1
@.str.211 = private unnamed_addr constant [53 x i8] c"asn1_get_rsa_pubkey: cannot read public key content\0A\00", align 1
@.str.212 = private unnamed_addr constant [58 x i8] c"asn1_get_rsa_pubkey: unexpected byte frags in public key\0A\00", align 1
@.str.213 = private unnamed_addr constant [72 x i8] c"asn1_get_rsa_pubkey: found unexpected extra data in public key content\0A\00", align 1
@.str.214 = private unnamed_addr constant [65 x i8] c"asn1_get_rsa_pubkey: modulus has got an unsupported length (%u)\0A\00", align 1
@.str.215 = private unnamed_addr constant [36 x i8] c"asn1_get_rsa_pubkey: cannot read n\0A\00", align 1
@.str.216 = private unnamed_addr constant [60 x i8] c"asn1_get_rsa_pubkey: found unexpected extra data after exp\0A\00", align 1
@.str.217 = private unnamed_addr constant [66 x i8] c"asn1_get_rsa_pubkey: exponent has got an unsupported length (%u)\0A\00", align 1
@.str.218 = private unnamed_addr constant [36 x i8] c"asn1_get_rsa_pubkey: cannot read e\0A\00", align 1

; Function Attrs: inlinehint nounwind uwtable
define internal i64 @fmap_ptr2off(ptr noundef %0, ptr noundef %1) #3 {
  %3 = alloca ptr, align 8
  %4 = alloca ptr, align 8
  store ptr %0, ptr %3, align 8, !tbaa !3
  store ptr %1, ptr %4, align 8, !tbaa !62
  %5 = load ptr, ptr %4, align 8, !tbaa !62
  %6 = load ptr, ptr %3, align 8, !tbaa !3
  %7 = getelementptr inbounds nuw %struct.cl_fmap, ptr %6, i32 0, i32 2
  %8 = load ptr, ptr %7, align 8, !tbaa !106
  %9 = ptrtoint ptr %5 to i64
  %10 = ptrtoint ptr %8 to i64
  %11 = sub i64 %9, %10
  %12 = load ptr, ptr %3, align 8, !tbaa !3
  %13 = getelementptr inbounds nuw %struct.cl_fmap, ptr %12, i32 0, i32 11
  %14 = load i64, ptr %13, align 8, !tbaa !107
  %15 = sub i64 %11, %14
  ret i64 %15
}

; Function Attrs: inlinehint nounwind uwtable
define internal ptr @fmap_need_ptr_once(ptr noundef %0, ptr noundef %1, i64 noundef %2) #3 {
  %4 = alloca ptr, align 8
  %5 = alloca ptr, align 8
  %6 = alloca i64, align 8
  store ptr %0, ptr %4, align 8, !tbaa !3
  store ptr %1, ptr %5, align 8, !tbaa !62
  store i64 %2, ptr %6, align 8, !tbaa !61
  %7 = load ptr, ptr %4, align 8, !tbaa !3
  %8 = getelementptr inbounds nuw %struct.cl_fmap, ptr %7, i32 0, i32 15
  %9 = load ptr, ptr %8, align 8, !tbaa !87
  %10 = load ptr, ptr %4, align 8, !tbaa !3
  %11 = load ptr, ptr %4, align 8, !tbaa !3
  %12 = load ptr, ptr %5, align 8, !tbaa !62
  %13 = call i64 @fmap_ptr2off(ptr noundef %11, ptr noundef %12)
  %14 = load i64, ptr %6, align 8, !tbaa !61
  %15 = call ptr %9(ptr noundef %10, i64 noundef %13, i64 noundef %14, i32 noundef 0)
  ret ptr %15
}

; Function Attrs: nounwind uwtable
define internal i32 @asn1_get_rsa_pubkey(ptr noundef %0, ptr noundef %1, ptr noundef %2, ptr noundef %3) #0 {
  %5 = alloca i32, align 4
  %6 = alloca ptr, align 8
  %7 = alloca ptr, align 8
  %8 = alloca ptr, align 8
  %9 = alloca ptr, align 8
  %10 = alloca %struct.cli_asn1, align 8
  %11 = alloca i32, align 4
  %12 = alloca i32, align 4
  %13 = alloca i32, align 4
  store ptr %0, ptr %6, align 8, !tbaa !3
  store ptr %1, ptr %7, align 8, !tbaa !62
  store ptr %2, ptr %8, align 8, !tbaa !63
  store ptr %3, ptr %9, align 8, !tbaa !68
  call void @llvm.lifetime.start.p0(i64 24, ptr %10) #8
  call void @llvm.lifetime.start.p0(i64 4, ptr %11) #8
  call void @llvm.lifetime.start.p0(i64 4, ptr %12) #8
  %14 = load ptr, ptr %6, align 8, !tbaa !3
  %15 = load ptr, ptr %7, align 8, !tbaa !62
  %16 = load ptr, ptr %15, align 8, !tbaa !62
  %17 = load ptr, ptr %8, align 8, !tbaa !63
  %18 = call i32 @asn1_expect_objtype(ptr noundef %14, ptr noundef %16, ptr noundef %17, ptr noundef %10, i8 noundef zeroext 48)
  %19 = icmp ne i32 %18, 0
  br i1 %19, label %20, label %21

20:                                               ; preds = %4
  store i32 1, ptr %5, align 4
  store i32 1, ptr %13, align 4
  br label %164

21:                                               ; preds = %4
  %22 = getelementptr inbounds nuw %struct.cli_asn1, ptr %10, i32 0, i32 3
  %23 = load ptr, ptr %22, align 8, !tbaa !16
  %24 = load ptr, ptr %7, align 8, !tbaa !62
  store ptr %23, ptr %24, align 8, !tbaa !62
  %25 = getelementptr inbounds nuw %struct.cli_asn1, ptr %10, i32 0, i32 1
  %26 = load i32, ptr %25, align 4, !tbaa !19
  store i32 %26, ptr %11, align 4, !tbaa !20
  %27 = load ptr, ptr %6, align 8, !tbaa !3
  %28 = getelementptr inbounds nuw %struct.cli_asn1, ptr %10, i32 0, i32 2
  %29 = call i32 @asn1_expect_algo(ptr noundef %27, ptr noundef %28, ptr noundef %11, i32 noundef 9, ptr noundef @.str.111)
  %30 = icmp ne i32 %29, 0
  br i1 %30, label %31, label %32

31:                                               ; preds = %21
  call void (ptr, ...) @cli_dbgmsg(ptr noundef @.str.209)
  store i32 1, ptr %5, align 4
  store i32 1, ptr %13, align 4
  br label %164

32:                                               ; preds = %21
  %33 = load ptr, ptr %6, align 8, !tbaa !3
  %34 = getelementptr inbounds nuw %struct.cli_asn1, ptr %10, i32 0, i32 2
  %35 = load ptr, ptr %34, align 8, !tbaa !21
  %36 = call i32 @asn1_expect_objtype(ptr noundef %33, ptr noundef %35, ptr noundef %11, ptr noundef %10, i8 noundef zeroext 3)
  %37 = icmp ne i32 %36, 0
  br i1 %37, label %38, label %39

38:                                               ; preds = %32
  store i32 1, ptr %5, align 4
  store i32 1, ptr %13, align 4
  br label %164

39:                                               ; preds = %32
  %40 = load i32, ptr %11, align 4, !tbaa !20
  %41 = icmp ne i32 %40, 0
  br i1 %41, label %42, label %43

42:                                               ; preds = %39
  call void (ptr, ...) @cli_dbgmsg(ptr noundef @.str.210)
  store i32 1, ptr %5, align 4
  store i32 1, ptr %13, align 4
  br label %164

43:                                               ; preds = %39
  %44 = load ptr, ptr %6, align 8, !tbaa !3
  %45 = getelementptr inbounds nuw %struct.cli_asn1, ptr %10, i32 0, i32 2
  %46 = load ptr, ptr %45, align 8, !tbaa !21
  %47 = call ptr @fmap_need_ptr_once(ptr noundef %44, ptr noundef %46, i64 noundef 1)
  %48 = icmp ne ptr %47, null
  br i1 %48, label %50, label %49

49:                                               ; preds = %43
  call void (ptr, ...) @cli_dbgmsg(ptr noundef @.str.211)
  store i32 1, ptr %5, align 4
  store i32 1, ptr %13, align 4
  br label %164

50:                                               ; preds = %43
  %51 = getelementptr inbounds nuw %struct.cli_asn1, ptr %10, i32 0, i32 2
  %52 = load ptr, ptr %51, align 8, !tbaa !21
  %53 = getelementptr inbounds i8, ptr %52, i64 0
  %54 = load i8, ptr %53, align 1, !tbaa !22
  %55 = zext i8 %54 to i32
  %56 = icmp ne i32 %55, 0
  br i1 %56, label %57, label %58

57:                                               ; preds = %50
  call void (ptr, ...) @cli_dbgmsg(ptr noundef @.str.212)
  store i32 1, ptr %5, align 4
  store i32 1, ptr %13, align 4
  br label %164

58:                                               ; preds = %50
  %59 = getelementptr inbounds nuw %struct.cli_asn1, ptr %10, i32 0, i32 1
  %60 = load i32, ptr %59, align 4, !tbaa !19
  %61 = sub i32 %60, 1
  store i32 %61, ptr %11, align 4, !tbaa !20
  %62 = getelementptr inbounds nuw %struct.cli_asn1, ptr %10, i32 0, i32 2
  %63 = load ptr, ptr %62, align 8, !tbaa !21
  %64 = getelementptr inbounds i8, ptr %63, i64 1
  %65 = getelementptr inbounds nuw %struct.cli_asn1, ptr %10, i32 0, i32 2
  store ptr %64, ptr %65, align 8, !tbaa !21
  %66 = load ptr, ptr %6, align 8, !tbaa !3
  %67 = getelementptr inbounds nuw %struct.cli_asn1, ptr %10, i32 0, i32 2
  %68 = load ptr, ptr %67, align 8, !tbaa !21
  %69 = call i32 @asn1_expect_objtype(ptr noundef %66, ptr noundef %68, ptr noundef %11, ptr noundef %10, i8 noundef zeroext 48)
  %70 = icmp ne i32 %69, 0
  br i1 %70, label %71, label %72

71:                                               ; preds = %58
  store i32 1, ptr %5, align 4
  store i32 1, ptr %13, align 4
  br label %164

72:                                               ; preds = %58
  %73 = load i32, ptr %11, align 4, !tbaa !20
  %74 = icmp ne i32 %73, 0
  br i1 %74, label %75, label %76

75:                                               ; preds = %72
  call void (ptr, ...) @cli_dbgmsg(ptr noundef @.str.213)
  store i32 1, ptr %5, align 4
  store i32 1, ptr %13, align 4
  br label %164

76:                                               ; preds = %72
  %77 = getelementptr inbounds nuw %struct.cli_asn1, ptr %10, i32 0, i32 1
  %78 = load i32, ptr %77, align 4, !tbaa !19
  store i32 %78, ptr %11, align 4, !tbaa !20
  %79 = load ptr, ptr %6, align 8, !tbaa !3
  %80 = getelementptr inbounds nuw %struct.cli_asn1, ptr %10, i32 0, i32 2
  %81 = load ptr, ptr %80, align 8, !tbaa !21
  %82 = call i32 @asn1_expect_objtype(ptr noundef %79, ptr noundef %81, ptr noundef %11, ptr noundef %10, i8 noundef zeroext 2)
  %83 = icmp ne i32 %82, 0
  br i1 %83, label %84, label %85

84:                                               ; preds = %76
  store i32 1, ptr %5, align 4
  store i32 1, ptr %13, align 4
  br label %164

85:                                               ; preds = %76
  %86 = getelementptr inbounds nuw %struct.cli_asn1, ptr %10, i32 0, i32 1
  %87 = load i32, ptr %86, align 4, !tbaa !19
  %88 = icmp ult i32 %87, 128
  br i1 %88, label %93, label %89

89:                                               ; preds = %85
  %90 = getelementptr inbounds nuw %struct.cli_asn1, ptr %10, i32 0, i32 1
  %91 = load i32, ptr %90, align 4, !tbaa !19
  %92 = icmp ugt i32 %91, 513
  br i1 %92, label %93, label %97

93:                                               ; preds = %89, %85
  %94 = getelementptr inbounds nuw %struct.cli_asn1, ptr %10, i32 0, i32 1
  %95 = load i32, ptr %94, align 4, !tbaa !19
  %96 = mul i32 %95, 8
  call void (ptr, ...) @cli_dbgmsg(ptr noundef @.str.214, i32 noundef %96)
  store i32 1, ptr %5, align 4
  store i32 1, ptr %13, align 4
  br label %164

97:                                               ; preds = %89
  %98 = getelementptr inbounds nuw %struct.cli_asn1, ptr %10, i32 0, i32 1
  %99 = load i32, ptr %98, align 4, !tbaa !19
  store i32 %99, ptr %12, align 4, !tbaa !20
  %100 = load ptr, ptr %6, align 8, !tbaa !3
  %101 = getelementptr inbounds nuw %struct.cli_asn1, ptr %10, i32 0, i32 2
  %102 = load ptr, ptr %101, align 8, !tbaa !21
  %103 = load i32, ptr %12, align 4, !tbaa !20
  %104 = zext i32 %103 to i64
  %105 = call ptr @fmap_need_ptr_once(ptr noundef %100, ptr noundef %102, i64 noundef %104)
  %106 = icmp ne ptr %105, null
  br i1 %106, label %108, label %107

107:                                              ; preds = %97
  call void (ptr, ...) @cli_dbgmsg(ptr noundef @.str.215)
  store i32 1, ptr %5, align 4
  store i32 1, ptr %13, align 4
  br label %164

108:                                              ; preds = %97
  %109 = getelementptr inbounds nuw %struct.cli_asn1, ptr %10, i32 0, i32 2
  %110 = load ptr, ptr %109, align 8, !tbaa !21
  %111 = load i32, ptr %12, align 4, !tbaa !20
  %112 = load ptr, ptr %9, align 8, !tbaa !68
  %113 = getelementptr inbounds nuw %struct.cli_crt_t, ptr %112, i32 0, i32 9
  %114 = load ptr, ptr %113, align 8, !tbaa !71
  %115 = call ptr @BN_bin2bn(ptr noundef %110, i32 noundef %111, ptr noundef %114)
  %116 = icmp ne ptr %115, null
  br i1 %116, label %118, label %117

117:                                              ; preds = %108
  store i32 1, ptr %5, align 4
  store i32 1, ptr %13, align 4
  br label %164

118:                                              ; preds = %108
  %119 = load ptr, ptr %6, align 8, !tbaa !3
  %120 = getelementptr inbounds nuw %struct.cli_asn1, ptr %10, i32 0, i32 3
  %121 = load ptr, ptr %120, align 8, !tbaa !16
  %122 = call i32 @asn1_expect_objtype(ptr noundef %119, ptr noundef %121, ptr noundef %11, ptr noundef %10, i8 noundef zeroext 2)
  %123 = icmp ne i32 %122, 0
  br i1 %123, label %124, label %125

124:                                              ; preds = %118
  store i32 1, ptr %5, align 4
  store i32 1, ptr %13, align 4
  br label %164

125:                                              ; preds = %118
  %126 = load i32, ptr %11, align 4, !tbaa !20
  %127 = icmp ne i32 %126, 0
  br i1 %127, label %128, label %129

128:                                              ; preds = %125
  call void (ptr, ...) @cli_dbgmsg(ptr noundef @.str.216)
  store i32 1, ptr %5, align 4
  store i32 1, ptr %13, align 4
  br label %164

129:                                              ; preds = %125
  %130 = getelementptr inbounds nuw %struct.cli_asn1, ptr %10, i32 0, i32 1
  %131 = load i32, ptr %130, align 4, !tbaa !19
  %132 = icmp ult i32 %131, 1
  br i1 %132, label %138, label %133

133:                                              ; preds = %129
  %134 = getelementptr inbounds nuw %struct.cli_asn1, ptr %10, i32 0, i32 1
  %135 = load i32, ptr %134, align 4, !tbaa !19
  %136 = load i32, ptr %12, align 4, !tbaa !20
  %137 = icmp ugt i32 %135, %136
  br i1 %137, label %138, label %142

138:                                              ; preds = %133, %129
  %139 = getelementptr inbounds nuw %struct.cli_asn1, ptr %10, i32 0, i32 1
  %140 = load i32, ptr %139, align 4, !tbaa !19
  %141 = mul i32 %140, 8
  call void (ptr, ...) @cli_dbgmsg(ptr noundef @.str.217, i32 noundef %141)
  store i32 1, ptr %5, align 4
  store i32 1, ptr %13, align 4
  br label %164

142:                                              ; preds = %133
  %143 = load ptr, ptr %6, align 8, !tbaa !3
  %144 = getelementptr inbounds nuw %struct.cli_asn1, ptr %10, i32 0, i32 2
  %145 = load ptr, ptr %144, align 8, !tbaa !21
  %146 = getelementptr inbounds nuw %struct.cli_asn1, ptr %10, i32 0, i32 1
  %147 = load i32, ptr %146, align 4, !tbaa !19
  %148 = zext i32 %147 to i64
  %149 = call ptr @fmap_need_ptr_once(ptr noundef %143, ptr noundef %145, i64 noundef %148)
  %150 = icmp ne ptr %149, null
  br i1 %150, label %152, label %151

151:                                              ; preds = %142
  call void (ptr, ...) @cli_dbgmsg(ptr noundef @.str.218)
  store i32 1, ptr %5, align 4
  store i32 1, ptr %13, align 4
  br label %164

152:                                              ; preds = %142
  %153 = getelementptr inbounds nuw %struct.cli_asn1, ptr %10, i32 0, i32 2
  %154 = load ptr, ptr %153, align 8, !tbaa !21
  %155 = getelementptr inbounds nuw %struct.cli_asn1, ptr %10, i32 0, i32 1
  %156 = load i32, ptr %155, align 4, !tbaa !19
  %157 = load ptr, ptr %9, align 8, !tbaa !68
  %158 = getelementptr inbounds nuw %struct.cli_crt_t, ptr %157, i32 0, i32 10
  %159 = load ptr, ptr %158, align 8, !tbaa !74
  %160 = call ptr @BN_bin2bn(ptr noundef %154, i32 noundef %156, ptr noundef %159)
  %161 = icmp ne ptr %160, null
  br i1 %161, label %163, label %162

162:                                              ; preds = %152
  store i32 1, ptr %5, align 4
  store i32 1, ptr %13, align 4
  br label %164

163:                                              ; preds = %152
  store i32 0, ptr %5, align 4
  store i32 1, ptr %13, align 4
  br label %164

164:                                              ; preds = %163, %162, %151, %138, %128, %124, %117, %107, %93, %84, %75, %71, %57, %49, %42, %38, %31, %20
  call void @llvm.lifetime.end.p0(i64 4, ptr %12) #8
  call void @llvm.lifetime.end.p0(i64 4, ptr %11) #8
  call void @llvm.lifetime.end.p0(i64 24, ptr %10) #8
  %165 = load i32, ptr %5, align 4
  ret i32 %165
}