; Function Attrs: nounwind uwtable
define internal fastcc range(i32 0, 2) i32 @asn1_get_rsa_pubkey(ptr noundef %0, ptr noundef nonnull captures(none) %1, ptr noundef nonnull captures(none) %2, ptr noundef nonnull readonly captures(none) %3) unnamed_addr #0 {
  %5 = alloca %struct.cli_asn1, align 8
  %6 = alloca i32, align 4
  call void @llvm.lifetime.start.p0(i64 24, ptr nonnull %5) #11
  call void @llvm.lifetime.start.p0(i64 4, ptr nonnull %6) #11
  %7 = load ptr, ptr %1, align 8, !tbaa !61
  %8 = call fastcc i32 @asn1_get_obj(ptr noundef %0, ptr noundef %7, ptr noundef nonnull %2, ptr noundef nonnull %5)
  %.not.i = icmp eq i32 %8, 0
  br i1 %.not.i, label %9, label %asn1_expect_objtype.exit.thread

9:                                                ; preds = %4
  %10 = load i8, ptr %5, align 8, !tbaa !15
  %.not13.i = icmp eq i8 %10, 48
  br i1 %.not13.i, label %asn1_expect_objtype.exit, label %11

11:                                               ; preds = %9
  %12 = zext i8 %10 to i32
  tail call void (ptr, ...) @cli_dbgmsg(ptr noundef nonnull @.str.275, i32 noundef 48, i32 noundef %12) #11
  br label %asn1_expect_objtype.exit.thread

asn1_expect_objtype.exit:                         ; preds = %9
  %13 = getelementptr inbounds nuw i8, ptr %5, i64 16
  %14 = load ptr, ptr %13, align 8, !tbaa !12
  store ptr %14, ptr %1, align 8, !tbaa !61
  %15 = getelementptr inbounds nuw i8, ptr %5, i64 4
  %16 = load i32, ptr %15, align 4, !tbaa !16
  store i32 %16, ptr %6, align 4, !tbaa !17
  %17 = getelementptr inbounds nuw i8, ptr %5, i64 8
  %18 = call fastcc i32 @asn1_expect_algo(ptr noundef %0, ptr noundef %17, ptr noundef %6)
  %.not21 = icmp eq i32 %18, 0
  br i1 %.not21, label %20, label %19

19:                                               ; preds = %asn1_expect_objtype.exit
  tail call void (ptr, ...) @cli_dbgmsg(ptr noundef nonnull @.str.209) #11
  br label %asn1_expect_objtype.exit.thread

20:                                               ; preds = %asn1_expect_objtype.exit
  %21 = load ptr, ptr %17, align 8, !tbaa !18
  %22 = call fastcc i32 @asn1_get_obj(ptr noundef %0, ptr noundef %21, ptr noundef nonnull %6, ptr noundef nonnull %5)
  %.not.i36 = icmp eq i32 %22, 0
  br i1 %.not.i36, label %23, label %asn1_expect_objtype.exit.thread

23:                                               ; preds = %20
  %24 = load i8, ptr %5, align 8, !tbaa !15
  %.not13.i38 = icmp eq i8 %24, 3
  br i1 %.not13.i38, label %asn1_expect_objtype.exit39, label %25

25:                                               ; preds = %23
  %26 = zext i8 %24 to i32
  tail call void (ptr, ...) @cli_dbgmsg(ptr noundef nonnull @.str.275, i32 noundef 3, i32 noundef %26) #11
  br label %asn1_expect_objtype.exit.thread

asn1_expect_objtype.exit39:                       ; preds = %23
  %27 = load i32, ptr %6, align 4, !tbaa !17
  %.not23 = icmp eq i32 %27, 0
  br i1 %.not23, label %29, label %28

28:                                               ; preds = %asn1_expect_objtype.exit39
  tail call void (ptr, ...) @cli_dbgmsg(ptr noundef nonnull @.str.210) #11
  br label %asn1_expect_objtype.exit.thread

29:                                               ; preds = %asn1_expect_objtype.exit39
  %30 = load ptr, ptr %17, align 8, !tbaa !18
  %31 = getelementptr inbounds nuw i8, ptr %0, i64 104
  %32 = load ptr, ptr %31, align 8, !tbaa !19
  %33 = getelementptr i8, ptr %0, i64 16
  %.val.i = load ptr, ptr %33, align 8, !tbaa !20
  %34 = getelementptr i8, ptr %0, i64 72
  %.val4.i = load i64, ptr %34, align 8, !tbaa !21
  %35 = ptrtoint ptr %30 to i64
  %36 = ptrtoint ptr %.val.i to i64
  %37 = add i64 %.val4.i, %36
  %38 = sub i64 %35, %37
  %39 = tail call ptr %32(ptr noundef %0, i64 noundef %38, i64 noundef 1, i32 noundef 0) #11
  %.not24 = icmp eq ptr %39, null
  br i1 %.not24, label %40, label %41

40:                                               ; preds = %29
  tail call void (ptr, ...) @cli_dbgmsg(ptr noundef nonnull @.str.211) #11
  br label %asn1_expect_objtype.exit.thread

41:                                               ; preds = %29
  %42 = load i8, ptr %30, align 1, !tbaa !22
  %.not25 = icmp eq i8 %42, 0
  br i1 %.not25, label %44, label %43

43:                                               ; preds = %41
  tail call void (ptr, ...) @cli_dbgmsg(ptr noundef nonnull @.str.212) #11
  br label %asn1_expect_objtype.exit.thread

44:                                               ; preds = %41
  %45 = load i32, ptr %15, align 4, !tbaa !16
  %46 = add i32 %45, -1
  store i32 %46, ptr %6, align 4, !tbaa !17
  %47 = getelementptr inbounds nuw i8, ptr %30, i64 1
  store ptr %47, ptr %17, align 8, !tbaa !18
  %48 = call fastcc i32 @asn1_expect_objtype(ptr noundef nonnull %0, ptr noundef nonnull %47, ptr noundef %6, ptr noundef %5, i8 noundef zeroext 48)
  %.not26 = icmp eq i32 %48, 0
  br i1 %.not26, label %49, label %asn1_expect_objtype.exit.thread

49:                                               ; preds = %44
  %50 = load i32, ptr %6, align 4, !tbaa !17
  %.not27 = icmp eq i32 %50, 0
  br i1 %.not27, label %52, label %51

51:                                               ; preds = %49
  tail call void (ptr, ...) @cli_dbgmsg(ptr noundef nonnull @.str.213) #11
  br label %asn1_expect_objtype.exit.thread

52:                                               ; preds = %49
  %53 = load i32, ptr %15, align 4, !tbaa !16
  store i32 %53, ptr %6, align 4, !tbaa !17
  %54 = load ptr, ptr %17, align 8, !tbaa !18
  %55 = call fastcc i32 @asn1_expect_objtype(ptr noundef nonnull %0, ptr noundef %54, ptr noundef %6, ptr noundef %5, i8 noundef zeroext 2)
  %.not28 = icmp eq i32 %55, 0
  br i1 %.not28, label %56, label %asn1_expect_objtype.exit.thread

56:                                               ; preds = %52
  %57 = load i32, ptr %15, align 4, !tbaa !16
  %58 = add i32 %57, -514
  %or.cond = icmp ult i32 %58, -386
  br i1 %or.cond, label %59, label %61

59:                                               ; preds = %56
  %60 = shl i32 %57, 3
  tail call void (ptr, ...) @cli_dbgmsg(ptr noundef nonnull @.str.214, i32 noundef %60) #11
  br label %asn1_expect_objtype.exit.thread

61:                                               ; preds = %56
  %62 = load ptr, ptr %17, align 8, !tbaa !18
  %63 = zext nneg i32 %57 to i64
  %64 = load ptr, ptr %31, align 8, !tbaa !19
  %.val.i40 = load ptr, ptr %33, align 8, !tbaa !20
  %.val4.i41 = load i64, ptr %34, align 8, !tbaa !21
  %65 = ptrtoint ptr %62 to i64
  %66 = ptrtoint ptr %.val.i40 to i64
  %67 = add i64 %.val4.i41, %66
  %68 = sub i64 %65, %67
  %69 = tail call ptr %64(ptr noundef nonnull %0, i64 noundef %68, i64 noundef range(i64 0, 4294967296) %63, i32 noundef 0) #11
  %.not29 = icmp eq ptr %69, null
  br i1 %.not29, label %70, label %71

70:                                               ; preds = %61
  tail call void (ptr, ...) @cli_dbgmsg(ptr noundef nonnull @.str.215) #11
  br label %asn1_expect_objtype.exit.thread

71:                                               ; preds = %61
  %72 = getelementptr inbounds nuw i8, ptr %3, i64 328
  %73 = load ptr, ptr %72, align 8, !tbaa !65
  %74 = tail call ptr @BN_bin2bn(ptr noundef %62, i32 noundef %57, ptr noundef %73) #11
  %.not30 = icmp eq ptr %74, null
  br i1 %.not30, label %asn1_expect_objtype.exit.thread, label %75

75:                                               ; preds = %71
  %76 = load ptr, ptr %13, align 8, !tbaa !12
  %77 = call fastcc i32 @asn1_expect_objtype(ptr noundef nonnull %0, ptr noundef %76, ptr noundef %6, ptr noundef %5, i8 noundef zeroext 2)
  %.not31 = icmp eq i32 %77, 0
  br i1 %.not31, label %78, label %asn1_expect_objtype.exit.thread

78:                                               ; preds = %75
  %79 = load i32, ptr %6, align 4, !tbaa !17
  %.not32 = icmp eq i32 %79, 0
  br i1 %.not32, label %81, label %80

80:                                               ; preds = %78
  tail call void (ptr, ...) @cli_dbgmsg(ptr noundef nonnull @.str.216) #11
  br label %asn1_expect_objtype.exit.thread

81:                                               ; preds = %78
  %82 = load i32, ptr %15, align 4, !tbaa !16
  %83 = add i32 %82, -1
  %or.cond35.not = icmp ult i32 %83, %57
  br i1 %or.cond35.not, label %86, label %84

84:                                               ; preds = %81
  %85 = shl i32 %82, 3
  tail call void (ptr, ...) @cli_dbgmsg(ptr noundef nonnull @.str.217, i32 noundef %85) #11
  br label %asn1_expect_objtype.exit.thread

86:                                               ; preds = %81
  %87 = load ptr, ptr %17, align 8, !tbaa !18
  %88 = zext nneg i32 %82 to i64
  %89 = load ptr, ptr %31, align 8, !tbaa !19
  %.val.i42 = load ptr, ptr %33, align 8, !tbaa !20
  %.val4.i43 = load i64, ptr %34, align 8, !tbaa !21
  %90 = ptrtoint ptr %87 to i64
  %91 = ptrtoint ptr %.val.i42 to i64
  %92 = add i64 %.val4.i43, %91
  %93 = sub i64 %90, %92
  %94 = tail call ptr %89(ptr noundef nonnull %0, i64 noundef %93, i64 noundef range(i64 0, 4294967296) %88, i32 noundef 0) #11
  %.not33 = icmp eq ptr %94, null
  br i1 %.not33, label %95, label %96

95:                                               ; preds = %86
  tail call void (ptr, ...) @cli_dbgmsg(ptr noundef nonnull @.str.218) #11
  br label %asn1_expect_objtype.exit.thread

96:                                               ; preds = %86
  %97 = getelementptr inbounds nuw i8, ptr %3, i64 336
  %98 = load ptr, ptr %97, align 8, !tbaa !68
  %99 = tail call ptr @BN_bin2bn(ptr noundef %87, i32 noundef %82, ptr noundef %98) #11
  %.not34 = icmp eq ptr %99, null
  %. = zext i1 %.not34 to i32
  br label %asn1_expect_objtype.exit.thread

asn1_expect_objtype.exit.thread:                  ; preds = %20, %25, %4, %11, %96, %75, %71, %52, %44, %95, %84, %80, %70, %59, %51, %43, %40, %28, %19
  %.0 = phi i32 [ 1, %19 ], [ 1, %28 ], [ 1, %43 ], [ 1, %51 ], [ 1, %59 ], [ 1, %80 ], [ 1, %84 ], [ 1, %95 ], [ 1, %70 ], [ 1, %40 ], [ 1, %44 ], [ 1, %52 ], [ 1, %71 ], [ 1, %75 ], [ %., %96 ], [ 1, %11 ], [ 1, %4 ], [ 1, %25 ], [ 1, %20 ]
  call void @llvm.lifetime.end.p0(i64 4, ptr nonnull %6) #11
  call void @llvm.lifetime.end.p0(i64 24, ptr nonnull %5) #11
  ret i32 %.0
}